; Function Attrs: mustprogress uwtable
define noundef double @_ZNK8QuantLib15InflationCoupon13accruedAmountERKNS_4DateE(ptr noundef nonnull align 8 dereferenceable(160) %this, ptr noundef nonnull align 8 dereferenceable(8) %d) unnamed_addr #8 align 2 {
entry:
  %accrualStartDate_ = getelementptr inbounds nuw i8, ptr %this, i64 40
  %0 = load i64, ptr %d, align 8, !tbaa !77
  %1 = load i64, ptr %accrualStartDate_, align 8, !tbaa !77
  %cmp.i = icmp sle i64 %0, %1
  %paymentDate_ = getelementptr inbounds nuw i8, ptr %this, i64 24
  %2 = load i64, ptr %paymentDate_, align 8
  %cmp.i3 = icmp sgt i64 %0, %2
  %or.cond = select i1 %cmp.i, i1 true, i1 %cmp.i3
  br i1 %or.cond, label %return, label %if.else

if.else:                                          ; preds = %entry
  %vtable = load ptr, ptr %this, align 8, !tbaa !33
  %vfn = getelementptr inbounds i8, ptr %vtable, i64 64
  %3 = load ptr, ptr %vfn, align 8
  %call3 = tail call noundef double %3(ptr noundef nonnull align 8 dereferenceable(88) %this)
  %vtable4 = load ptr, ptr %this, align 8, !tbaa !33
  %vfn5 = getelementptr inbounds i8, ptr %vtable4, i64 72
  %4 = load ptr, ptr %vfn5, align 8
  %call6 = tail call noundef double %4(ptr noundef nonnull align 8 dereferenceable(160) %this)
  %mul = fmul double %call3, %call6
  %call7 = tail call noundef double @_ZNK8QuantLib6Coupon13accruedPeriodERKNS_4DateE(ptr noundef nonnull align 8 dereferenceable(88) %this, ptr noundef nonnull align 8 dereferenceable(8) %d)
  %mul8 = fmul double %mul, %call7
  br label %return

return:                                           ; preds = %entry, %if.else
  %retval.0 = phi double [ %mul8, %if.else ], [ 0.000000e+00, %entry ]
  ret double %retval.0
}